; Function Attrs: mustprogress uwtable
define dso_local noundef zeroext i1 @_ZNK5vcpkg19ReadOnlyBinaryCache11is_restoredERKNS_17InstallPlanActionE(ptr noundef nonnull align 8 dereferenceable(232) %0, ptr noundef nonnull align 8 dereferenceable(528) %1) local_unnamed_addr #0 align 2 {
  %3 = tail call ptr @_ZNK5vcpkg17InstallPlanAction11package_abiB5cxx11Ev(ptr noundef nonnull align 8 dereferenceable(528) %1)
  %.not = icmp eq ptr %3, null
  br i1 %.not, label %11, label %4

4:                                                ; preds = %2
  %5 = getelementptr inbounds i8, ptr %0, i64 176
  %6 = tail call ptr @_ZNKSt10_HashtableINSt7__cxx1112basic_stringIcSt11char_traitsIcESaIcEEESt4pairIKS5_N5vcpkg11CacheStatusEESaISA_ENSt8__detail10_Select1stESt8equal_toIS5_ESt4hashIS5_ENSC_18_Mod_range_hashingENSC_20_Default_ranged_hashENSC_20_Prime_rehash_policyENSC_17_Hashtable_traitsILb1ELb0ELb1EEEE4findERS7_(ptr noundef nonnull align 8 dereferenceable(56) %5, ptr noundef nonnull align 8 dereferenceable(32) %3)
  %.not9 = icmp eq ptr %6, null
  br i1 %.not9, label %11, label %7

7:                                                ; preds = %4
  %8 = getelementptr inbounds i8, ptr %6, i64 40
  %9 = load i8, ptr %8, align 8
  %10 = icmp eq i8 %9, 2
  br label %11

11:                                               ; preds = %2, %4, %7
  %.0 = phi i1 [ %10, %7 ], [ false, %4 ], [ false, %2 ]
  ret i1 %.0
}